; Function Attrs: nofree nounwind sspstrong uwtable
define dso_local i32 @main() local_unnamed_addr #0 {
  %1 = alloca i32, align 4
  %2 = alloca i32, align 4
  %3 = alloca i32, align 4
  %4 = alloca i32, align 4
  %5 = alloca [101 x [101 x i32]], align 16
  %6 = alloca [101 x [101 x i32]], align 16
  %7 = alloca [101 x [101 x i32]], align 16
  %8 = bitcast i32* %1 to i8*
  call void @llvm.lifetime.start.p0i8(i64 4, i8* nonnull %8) #4
  %9 = bitcast i32* %2 to i8*
  call void @llvm.lifetime.start.p0i8(i64 4, i8* nonnull %9) #4
  %10 = bitcast i32* %3 to i8*
  call void @llvm.lifetime.start.p0i8(i64 4, i8* nonnull %10) #4
  %11 = bitcast i32* %4 to i8*
  call void @llvm.lifetime.start.p0i8(i64 4, i8* nonnull %11) #4
  %12 = call i32 (i8*, ...) @__isoc99_scanf(i8* getelementptr inbounds ([6 x i8], [6 x i8]* @.str, i64 0, i64 0), i32* nonnull %1, i32* nonnull %2)
  %13 = bitcast [101 x [101 x i32]]* %5 to i8*
  call void @llvm.lifetime.start.p0i8(i64 40804, i8* nonnull %13) #4
  %14 = load i32, i32* %1, align 4, !tbaa !5
  %15 = icmp sgt i32 %14, 0
  %16 = load i32, i32* %2, align 4
  %17 = icmp sgt i32 %16, 0
  %18 = select i1 %15, i1 %17, i1 false
  br i1 %18, label %19, label %40

19:                                               ; preds = %0, %34
  %20 = phi i32 [ %35, %34 ], [ %14, %0 ]
  %21 = phi i32 [ %36, %34 ], [ %16, %0 ]
  %22 = phi i64 [ %37, %34 ], [ 0, %0 ]
  %23 = icmp sgt i32 %21, 0
  br i1 %23, label %24, label %34

24:                                               ; preds = %19, %24
  %25 = phi i64 [ %28, %24 ], [ 0, %19 ]
  %26 = getelementptr inbounds [101 x [101 x i32]], [101 x [101 x i32]]* %5, i64 0, i64 %22, i64 %25
  %27 = call i32 (i8*, ...) @__isoc99_scanf(i8* getelementptr inbounds ([3 x i8], [3 x i8]* @.str.1, i64 0, i64 0), i32* nonnull %26)
  %28 = add nuw nsw i64 %25, 1
  %29 = load i32, i32* %2, align 4, !tbaa !5
  %30 = sext i32 %29 to i64
  %31 = icmp slt i64 %28, %30
  br i1 %31, label %24, label %32, !llvm.loop !9

32:                                               ; preds = %24
  %33 = load i32, i32* %1, align 4, !tbaa !5
  br label %34

34:                                               ; preds = %32, %19
  %35 = phi i32 [ %33, %32 ], [ %20, %19 ]
  %36 = phi i32 [ %29, %32 ], [ %21, %19 ]
  %37 = add nuw nsw i64 %22, 1
  %38 = sext i32 %35 to i64
  %39 = icmp slt i64 %37, %38
  br i1 %39, label %19, label %40, !llvm.loop !11

40:                                               ; preds = %34, %0
  %41 = call i32 (i8*, ...) @__isoc99_scanf(i8* getelementptr inbounds ([6 x i8], [6 x i8]* @.str, i64 0, i64 0), i32* nonnull %3, i32* nonnull %4)
  %42 = bitcast [101 x [101 x i32]]* %6 to i8*
  call void @llvm.lifetime.start.p0i8(i64 40804, i8* nonnull %42) #4
  %43 = load i32, i32* %3, align 4, !tbaa !5
  %44 = icmp sgt i32 %43, 0
  %45 = load i32, i32* %4, align 4
  %46 = icmp sgt i32 %45, 0
  %47 = select i1 %44, i1 %46, i1 false
  br i1 %47, label %48, label %69

48:                                               ; preds = %40, %63
  %49 = phi i32 [ %64, %63 ], [ %43, %40 ]
  %50 = phi i32 [ %65, %63 ], [ %45, %40 ]
  %51 = phi i64 [ %66, %63 ], [ 0, %40 ]
  %52 = icmp sgt i32 %50, 0
  br i1 %52, label %53, label %63

53:                                               ; preds = %48, %53
  %54 = phi i64 [ %57, %53 ], [ 0, %48 ]
  %55 = getelementptr inbounds [101 x [101 x i32]], [101 x [101 x i32]]* %6, i64 0, i64 %51, i64 %54
  %56 = call i32 (i8*, ...) @__isoc99_scanf(i8* getelementptr inbounds ([3 x i8], [3 x i8]* @.str.1, i64 0, i64 0), i32* nonnull %55)
  %57 = add nuw nsw i64 %54, 1
  %58 = load i32, i32* %4, align 4, !tbaa !5
  %59 = sext i32 %58 to i64
  %60 = icmp slt i64 %57, %59
  br i1 %60, label %53, label %61, !llvm.loop !13

61:                                               ; preds = %53
  %62 = load i32, i32* %3, align 4, !tbaa !5
  br label %63

63:                                               ; preds = %61, %48
  %64 = phi i32 [ %62, %61 ], [ %49, %48 ]
  %65 = phi i32 [ %58, %61 ], [ %50, %48 ]
  %66 = add nuw nsw i64 %51, 1
  %67 = sext i32 %64 to i64
  %68 = icmp slt i64 %66, %67
  br i1 %68, label %48, label %69, !llvm.loop !14

69:                                               ; preds = %63, %40
  %70 = phi i32 [ %45, %40 ], [ %65, %63 ]
  %71 = bitcast [101 x [101 x i32]]* %7 to i8*
  call void @llvm.lifetime.start.p0i8(i64 40804, i8* nonnull %71) #4
  %72 = load i32, i32* %1, align 4, !tbaa !5
  %73 = load i32, i32* %2, align 4
  %74 = icmp sgt i32 %73, 0
  %75 = icmp sgt i32 %72, 0
  br i1 %75, label %76, label %217

76:                                               ; preds = %69
  %77 = icmp sgt i32 %70, 0
  br i1 %77, label %78, label %180

78:                                               ; preds = %76
  br i1 %74, label %88, label %79

79:                                               ; preds = %78
  %80 = zext i32 %70 to i64
  %81 = shl nuw nsw i64 %80, 2
  %82 = zext i32 %72 to i64
  %83 = add nsw i64 %82, -1
  %84 = and i64 %82, 7
  %85 = icmp ult i64 %83, 7
  br i1 %85, label %168, label %86

86:                                               ; preds = %79
  %87 = and i64 %82, 4294967288
  br label %139

88:                                               ; preds = %78
  %89 = zext i32 %72 to i64
  %90 = zext i32 %70 to i64
  %91 = zext i32 %73 to i64
  %92 = and i64 %91, 1
  %93 = icmp eq i32 %73, 1
  %94 = and i64 %91, 4294967294
  %95 = icmp eq i64 %92, 0
  br label %96

96:                                               ; preds = %88, %136
  %97 = phi i64 [ 0, %88 ], [ %137, %136 ]
  br label %98

98:                                               ; preds = %132, %96
  %99 = phi i64 [ %134, %132 ], [ 0, %96 ]
  %100 = getelementptr inbounds [101 x [101 x i32]], [101 x [101 x i32]]* %7, i64 0, i64 %97, i64 %99
  br i1 %93, label %121, label %101

101:                                              ; preds = %98, %101
  %102 = phi i64 [ %118, %101 ], [ 0, %98 ]
  %103 = phi i32 [ %117, %101 ], [ 0, %98 ]
  %104 = phi i64 [ %119, %101 ], [ %94, %98 ]
  %105 = getelementptr inbounds [101 x [101 x i32]], [101 x [101 x i32]]* %5, i64 0, i64 %97, i64 %102
  %106 = load i32, i32* %105, align 4, !tbaa !5
  %107 = getelementptr inbounds [101 x [101 x i32]], [101 x [101 x i32]]* %6, i64 0, i64 %102, i64 %99
  %108 = load i32, i32* %107, align 4, !tbaa !5
  %109 = mul nsw i32 %108, %106
  %110 = add nsw i32 %109, %103
  %111 = or i64 %102, 1
  %112 = getelementptr inbounds [101 x [101 x i32]], [101 x [101 x i32]]* %5, i64 0, i64 %97, i64 %111
  %113 = load i32, i32* %112, align 4, !tbaa !5
  %114 = getelementptr inbounds [101 x [101 x i32]], [101 x [101 x i32]]* %6, i64 0, i64 %111, i64 %99
  %115 = load i32, i32* %114, align 4, !tbaa !5
  %116 = mul nsw i32 %115, %113
  %117 = add nsw i32 %116, %110
  %118 = add nuw nsw i64 %102, 2
  %119 = add i64 %104, -2
  %120 = icmp eq i64 %119, 0
  br i1 %120, label %121, label %101, !llvm.loop !15

121:                                              ; preds = %101, %98
  %122 = phi i32 [ undef, %98 ], [ %117, %101 ]
  %123 = phi i64 [ 0, %98 ], [ %118, %101 ]
  %124 = phi i32 [ 0, %98 ], [ %117, %101 ]
  br i1 %95, label %132, label %125

125:                                              ; preds = %121
  %126 = getelementptr inbounds [101 x [101 x i32]], [101 x [101 x i32]]* %6, i64 0, i64 %123, i64 %99
  %127 = load i32, i32* %126, align 4, !tbaa !5
  %128 = getelementptr inbounds [101 x [101 x i32]], [101 x [101 x i32]]* %5, i64 0, i64 %97, i64 %123
  %129 = load i32, i32* %128, align 4, !tbaa !5
  %130 = mul nsw i32 %127, %129
  %131 = add nsw i32 %130, %124
  br label %132

132:                                              ; preds = %121, %125
  %133 = phi i32 [ %122, %121 ], [ %131, %125 ]
  store i32 %133, i32* %100, align 4, !tbaa !5
  %134 = add nuw nsw i64 %99, 1
  %135 = icmp eq i64 %134, %90
  br i1 %135, label %136, label %98, !llvm.loop !16

136:                                              ; preds = %132
  %137 = add nuw nsw i64 %97, 1
  %138 = icmp eq i64 %137, %89
  br i1 %138, label %179, label %96, !llvm.loop !17

139:                                              ; preds = %139, %86
  %140 = phi i64 [ 0, %86 ], [ %165, %139 ]
  %141 = phi i64 [ %87, %86 ], [ %166, %139 ]
  %142 = getelementptr [101 x [101 x i32]], [101 x [101 x i32]]* %7, i64 0, i64 %140, i64 0
  %143 = bitcast i32* %142 to i8*
  call void @llvm.memset.p0i8.i64(i8* align 16 %143, i8 0, i64 %81, i1 false)
  %144 = or i64 %140, 1
  %145 = getelementptr [101 x [101 x i32]], [101 x [101 x i32]]* %7, i64 0, i64 %144, i64 0
  %146 = bitcast i32* %145 to i8*
  call void @llvm.memset.p0i8.i64(i8* align 4 %146, i8 0, i64 %81, i1 false)
  %147 = or i64 %140, 2
  %148 = getelementptr [101 x [101 x i32]], [101 x [101 x i32]]* %7, i64 0, i64 %147, i64 0
  %149 = bitcast i32* %148 to i8*
  call void @llvm.memset.p0i8.i64(i8* align 8 %149, i8 0, i64 %81, i1 false)
  %150 = or i64 %140, 3
  %151 = getelementptr [101 x [101 x i32]], [101 x [101 x i32]]* %7, i64 0, i64 %150, i64 0
  %152 = bitcast i32* %151 to i8*
  call void @llvm.memset.p0i8.i64(i8* align 4 %152, i8 0, i64 %81, i1 false)
  %153 = or i64 %140, 4
  %154 = getelementptr [101 x [101 x i32]], [101 x [101 x i32]]* %7, i64 0, i64 %153, i64 0
  %155 = bitcast i32* %154 to i8*
  call void @llvm.memset.p0i8.i64(i8* align 16 %155, i8 0, i64 %81, i1 false)
  %156 = or i64 %140, 5
  %157 = getelementptr [101 x [101 x i32]], [101 x [101 x i32]]* %7, i64 0, i64 %156, i64 0
  %158 = bitcast i32* %157 to i8*
  call void @llvm.memset.p0i8.i64(i8* align 4 %158, i8 0, i64 %81, i1 false)
  %159 = or i64 %140, 6
  %160 = getelementptr [101 x [101 x i32]], [101 x [101 x i32]]* %7, i64 0, i64 %159, i64 0
  %161 = bitcast i32* %160 to i8*
  call void @llvm.memset.p0i8.i64(i8* align 8 %161, i8 0, i64 %81, i1 false)
  %162 = or i64 %140, 7
  %163 = getelementptr [101 x [101 x i32]], [101 x [101 x i32]]* %7, i64 0, i64 %162, i64 0
  %164 = bitcast i32* %163 to i8*
  call void @llvm.memset.p0i8.i64(i8* align 4 %164, i8 0, i64 %81, i1 false)
  %165 = add nuw nsw i64 %140, 8
  %166 = add i64 %141, -8
  %167 = icmp eq i64 %166, 0
  br i1 %167, label %168, label %139, !llvm.loop !17

168:                                              ; preds = %139, %79
  %169 = phi i64 [ 0, %79 ], [ %165, %139 ]
  %170 = icmp eq i64 %84, 0
  br i1 %170, label %179, label %171

171:                                              ; preds = %168, %171
  %172 = phi i64 [ %176, %171 ], [ %169, %168 ]
  %173 = phi i64 [ %177, %171 ], [ %84, %168 ]
  %174 = getelementptr [101 x [101 x i32]], [101 x [101 x i32]]* %7, i64 0, i64 %172, i64 0
  %175 = bitcast i32* %174 to i8*
  call void @llvm.memset.p0i8.i64(i8* align 4 %175, i8 0, i64 %81, i1 false)
  %176 = add nuw nsw i64 %172, 1
  %177 = add i64 %173, -1
  %178 = icmp eq i64 %177, 0
  br i1 %178, label %179, label %171, !llvm.loop !18

179:                                              ; preds = %168, %171, %136
  br i1 %75, label %180, label %217

180:                                              ; preds = %76, %179
  br label %181

181:                                              ; preds = %180, %215
  %182 = phi i32 [ %216, %215 ], [ %70, %180 ]
  %183 = phi i64 [ %211, %215 ], [ 0, %180 ]
  %184 = icmp eq i32 %182, 1
  %185 = getelementptr inbounds [101 x [101 x i32]], [101 x [101 x i32]]* %7, i64 0, i64 %183, i64 0
  br i1 %184, label %193, label %186

186:                                              ; preds = %181
  %187 = icmp sgt i32 %182, 0
  br i1 %187, label %188, label %210

188:                                              ; preds = %186
  %189 = load i32, i32* %185, align 4, !tbaa !5
  %190 = call i32 (i8*, ...) @printf(i8* nonnull dereferenceable(1) getelementptr inbounds ([3 x i8], [3 x i8]* @.str.1, i64 0, i64 0), i32 %189)
  %191 = load i32, i32* %4, align 4, !tbaa !5
  %192 = icmp sgt i32 %191, 1
  br i1 %192, label %196, label %210

193:                                              ; preds = %181
  %194 = load i32, i32* %185, align 4, !tbaa !5
  %195 = call i32 (i8*, ...) @printf(i8* nonnull dereferenceable(1) getelementptr inbounds ([4 x i8], [4 x i8]* @.str.2, i64 0, i64 0), i32 %194)
  br label %210

196:                                              ; preds = %188, %196
  %197 = phi i64 [ %206, %196 ], [ 1, %188 ]
  %198 = phi i32 [ %207, %196 ], [ %191, %188 ]
  %199 = add nsw i32 %198, -1
  %200 = zext i32 %199 to i64
  %201 = icmp eq i64 %197, %200
  %202 = getelementptr inbounds [101 x [101 x i32]], [101 x [101 x i32]]* %7, i64 0, i64 %183, i64 %197
  %203 = load i32, i32* %202, align 4, !tbaa !5
  %204 = select i1 %201, i8* getelementptr inbounds ([5 x i8], [5 x i8]* @.str.3, i64 0, i64 0), i8* getelementptr inbounds ([4 x i8], [4 x i8]* @.str.4, i64 0, i64 0)
  %205 = call i32 (i8*, ...) @printf(i8* nonnull dereferenceable(1) %204, i32 %203)
  %206 = add nuw nsw i64 %197, 1
  %207 = load i32, i32* %4, align 4, !tbaa !5
  %208 = sext i32 %207 to i64
  %209 = icmp slt i64 %206, %208
  br i1 %209, label %196, label %210, !llvm.loop !20

210:                                              ; preds = %196, %188, %186, %193
  %211 = add nuw nsw i64 %183, 1
  %212 = load i32, i32* %1, align 4, !tbaa !5
  %213 = sext i32 %212 to i64
  %214 = icmp slt i64 %211, %213
  br i1 %214, label %215, label %217, !llvm.loop !22

215:                                              ; preds = %210
  %216 = load i32, i32* %4, align 4, !tbaa !5
  br label %181

217:                                              ; preds = %210, %69, %179
  %218 = load %struct._IO_FILE*, %struct._IO_FILE** @stdin, align 8, !tbaa !23
  %219 = call i32 @getc(%struct._IO_FILE* %218) #4
  %220 = load %struct._IO_FILE*, %struct._IO_FILE** @stdin, align 8, !tbaa !23
  %221 = call i32 @getc(%struct._IO_FILE* %220) #4
  call void @llvm.lifetime.end.p0i8(i64 40804, i8* nonnull %71) #4
  call void @llvm.lifetime.end.p0i8(i64 40804, i8* nonnull %42) #4
  call void @llvm.lifetime.end.p0i8(i64 40804, i8* nonnull %13) #4
  call void @llvm.lifetime.end.p0i8(i64 4, i8* nonnull %11) #4
  call void @llvm.lifetime.end.p0i8(i64 4, i8* nonnull %10) #4
  call void @llvm.lifetime.end.p0i8(i64 4, i8* nonnull %9) #4
  call void @llvm.lifetime.end.p0i8(i64 4, i8* nonnull %8) #4
  ret i32 0
}